target datalayout = "e-m:e-p270:32:32-p271:32:32-p272:64:64-i64:64-i128:128-f80:128-n8:16:32:64-S128"
target triple = "x86_64-pc-linux-gnu"

%struct.mlib_affine_param = type { ptr, ptr, ptr, ptr, ptr, ptr, ptr, ptr, ptr, i32, i32, i32, i32, i32, i32, i32, ptr, i32 }

; Function Attrs: nounwind uwtable
define hidden i32 @mlib_ImageAffine_s16_1ch_bl(ptr noundef %0) #0 {
  %2 = alloca ptr, align 8
  %3 = alloca ptr, align 8
  %4 = alloca ptr, align 8
  %5 = alloca ptr, align 8
  %6 = alloca ptr, align 8
  %7 = alloca ptr, align 8
  %8 = alloca ptr, align 8
  %9 = alloca i32, align 4
  %10 = alloca i32, align 4
  %11 = alloca i32, align 4
  %12 = alloca i32, align 4
  %13 = alloca i32, align 4
  %14 = alloca i32, align 4
  %15 = alloca i32, align 4
  %16 = alloca i32, align 4
  %17 = alloca i32, align 4
  %18 = alloca i32, align 4
  %19 = alloca ptr, align 8
  %20 = alloca ptr, align 8
  %21 = alloca ptr, align 8
  %22 = alloca i32, align 4
  %23 = alloca i32, align 4
  %24 = alloca i32, align 4
  %25 = alloca ptr, align 8
  %26 = alloca ptr, align 8
  %27 = alloca i32, align 4
  %28 = alloca i32, align 4
  %29 = alloca i32, align 4
  %30 = alloca i32, align 4
  %31 = alloca i32, align 4
  %32 = alloca i32, align 4
  %33 = alloca i32, align 4
  %34 = alloca i32, align 4
  %35 = alloca i32, align 4
  store ptr %0, ptr %2, align 8
  %36 = load ptr, ptr %2, align 8
  %37 = getelementptr inbounds %struct.mlib_affine_param, ptr %36, i32 0, i32 5
  %38 = load ptr, ptr %37, align 8
  store ptr %38, ptr %3, align 8
  %39 = load ptr, ptr %2, align 8
  %40 = getelementptr inbounds %struct.mlib_affine_param, ptr %39, i32 0, i32 6
  %41 = load ptr, ptr %40, align 8
  store ptr %41, ptr %4, align 8
  %42 = load ptr, ptr %2, align 8
  %43 = getelementptr inbounds %struct.mlib_affine_param, ptr %42, i32 0, i32 7
  %44 = load ptr, ptr %43, align 8
  store ptr %44, ptr %5, align 8
  %45 = load ptr, ptr %2, align 8
  %46 = getelementptr inbounds %struct.mlib_affine_param, ptr %45, i32 0, i32 8
  %47 = load ptr, ptr %46, align 8
  store ptr %47, ptr %6, align 8
  %48 = load ptr, ptr %2, align 8
  %49 = getelementptr inbounds %struct.mlib_affine_param, ptr %48, i32 0, i32 4
  %50 = load ptr, ptr %49, align 8
  store ptr %50, ptr %7, align 8
  %51 = load ptr, ptr %2, align 8
  %52 = getelementptr inbounds %struct.mlib_affine_param, ptr %51, i32 0, i32 3
  %53 = load ptr, ptr %52, align 8
  store ptr %53, ptr %8, align 8
  %54 = load ptr, ptr %2, align 8
  %55 = getelementptr inbounds %struct.mlib_affine_param, ptr %54, i32 0, i32 15
  %56 = load i32, ptr %55, align 8
  store i32 %56, ptr %9, align 4
  %57 = load ptr, ptr %2, align 8
  %58 = getelementptr inbounds %struct.mlib_affine_param, ptr %57, i32 0, i32 9
  %59 = load i32, ptr %58, align 8
  store i32 %59, ptr %14, align 4
  %60 = load ptr, ptr %2, align 8
  %61 = getelementptr inbounds %struct.mlib_affine_param, ptr %60, i32 0, i32 10
  %62 = load i32, ptr %61, align 4
  store i32 %62, ptr %15, align 4
  %63 = load ptr, ptr %2, align 8
  %64 = getelementptr inbounds %struct.mlib_affine_param, ptr %63, i32 0, i32 11
  %65 = load i32, ptr %64, align 8
  store i32 %65, ptr %16, align 4
  %66 = load ptr, ptr %2, align 8
  %67 = getelementptr inbounds %struct.mlib_affine_param, ptr %66, i32 0, i32 12
  %68 = load i32, ptr %67, align 4
  store i32 %68, ptr %17, align 4
  %69 = load ptr, ptr %2, align 8
  %70 = getelementptr inbounds %struct.mlib_affine_param, ptr %69, i32 0, i32 16
  %71 = load ptr, ptr %70, align 8
  store ptr %71, ptr %19, align 8
  %72 = load ptr, ptr %2, align 8
  %73 = getelementptr inbounds %struct.mlib_affine_param, ptr %72, i32 0, i32 14
  %74 = load i32, ptr %73, align 4
  store i32 %74, ptr %24, align 4
  %75 = load i32, ptr %16, align 4
  %76 = add nsw i32 %75, 1
  %77 = ashr i32 %76, 1
  store i32 %77, ptr %16, align 4
  %78 = load i32, ptr %17, align 4
  %79 = add nsw i32 %78, 1
  %80 = ashr i32 %79, 1
  store i32 %80, ptr %17, align 4
  %81 = load i32, ptr %14, align 4
  store i32 %81, ptr %18, align 4
  br label %82

82:                                               ; preds = %315, %1
  %83 = load i32, ptr %18, align 4
  %84 = load i32, ptr %15, align 4
  %85 = icmp sle i32 %83, %84
  br i1 %85, label %86, label %318

86:                                               ; preds = %82
  %87 = load i32, ptr %9, align 4
  %88 = load ptr, ptr %7, align 8
  %89 = sext i32 %87 to i64
  %90 = getelementptr inbounds i8, ptr %88, i64 %89
  store ptr %90, ptr %7, align 8
  %91 = load ptr, ptr %3, align 8
  %92 = load i32, ptr %18, align 4
  %93 = sext i32 %92 to i64
  %94 = getelementptr inbounds i32, ptr %91, i64 %93
  %95 = load i32, ptr %94, align 4
  store i32 %95, ptr %10, align 4
  %96 = load ptr, ptr %4, align 8
  %97 = load i32, ptr %18, align 4
  %98 = sext i32 %97 to i64
  %99 = getelementptr inbounds i32, ptr %96, i64 %98
  %100 = load i32, ptr %99, align 4
  store i32 %100, ptr %11, align 4
  %101 = load ptr, ptr %5, align 8
  %102 = load i32, ptr %18, align 4
  %103 = sext i32 %102 to i64
  %104 = getelementptr inbounds i32, ptr %101, i64 %103
  %105 = load i32, ptr %104, align 4
  store i32 %105, ptr %12, align 4
  %106 = load ptr, ptr %6, align 8
  %107 = load i32, ptr %18, align 4
  %108 = sext i32 %107 to i64
  %109 = getelementptr inbounds i32, ptr %106, i64 %108
  %110 = load i32, ptr %109, align 4
  store i32 %110, ptr %13, align 4
  %111 = load ptr, ptr %19, align 8
  %112 = icmp ne ptr %111, null
  br i1 %112, label %113, label %127

113:                                              ; preds = %86
  %114 = load ptr, ptr %19, align 8
  %115 = load i32, ptr %18, align 4
  %116 = mul nsw i32 2, %115
  %117 = sext i32 %116 to i64
  %118 = getelementptr inbounds i32, ptr %114, i64 %117
  %119 = load i32, ptr %118, align 4
  store i32 %119, ptr %16, align 4
  %120 = load ptr, ptr %19, align 8
  %121 = load i32, ptr %18, align 4
  %122 = mul nsw i32 2, %121
  %123 = add nsw i32 %122, 1
  %124 = sext i32 %123 to i64
  %125 = getelementptr inbounds i32, ptr %120, i64 %124
  %126 = load i32, ptr %125, align 4
  store i32 %126, ptr %17, align 4
  br label %127

127:                                              ; preds = %113, %86
  %128 = load i32, ptr %10, align 4
  %129 = load i32, ptr %11, align 4
  %130 = icmp sgt i32 %128, %129
  br i1 %130, label %131, label %132

131:                                              ; preds = %127
  br label %315

132:                                              ; preds = %127
  %133 = load ptr, ptr %7, align 8
  %134 = load i32, ptr %10, align 4
  %135 = mul nsw i32 1, %134
  %136 = sext i32 %135 to i64
  %137 = getelementptr inbounds i16, ptr %133, i64 %136
  store ptr %137, ptr %20, align 8
  %138 = load ptr, ptr %7, align 8
  %139 = load i32, ptr %11, align 4
  %140 = sext i32 %139 to i64
  %141 = getelementptr inbounds i16, ptr %138, i64 %140
  store ptr %141, ptr %25, align 8
  %142 = load i32, ptr %12, align 4
  %143 = ashr i32 %142, 1
  store i32 %143, ptr %12, align 4
  %144 = load i32, ptr %13, align 4
  %145 = ashr i32 %144, 1
  store i32 %145, ptr %13, align 4
  %146 = load ptr, ptr %19, align 8
  %147 = icmp ne ptr %146, null
  br i1 %147, label %148, label %155

148:                                              ; preds = %132
  %149 = load i32, ptr %16, align 4
  %150 = add nsw i32 %149, 1
  %151 = ashr i32 %150, 1
  store i32 %151, ptr %16, align 4
  %152 = load i32, ptr %17, align 4
  %153 = add nsw i32 %152, 1
  %154 = ashr i32 %153, 1
  store i32 %154, ptr %17, align 4
  br label %155

155:                                              ; preds = %148, %132
  %156 = load i32, ptr %12, align 4
  %157 = and i32 %156, 32767
  store i32 %157, ptr %27, align 4
  %158 = load i32, ptr %13, align 4
  %159 = and i32 %158, 32767
  store i32 %159, ptr %28, align 4
  %160 = load i32, ptr %13, align 4
  %161 = ashr i32 %160, 12
  %162 = and i32 %161, -8
  store i32 %162, ptr %23, align 4
  %163 = load i32, ptr %12, align 4
  %164 = ashr i32 %163, 15
  store i32 %164, ptr %22, align 4
  %165 = load ptr, ptr %8, align 8
  %166 = load i32, ptr %23, align 4
  %167 = sext i32 %166 to i64
  %168 = getelementptr inbounds i8, ptr %165, i64 %167
  %169 = load ptr, ptr %168, align 8
  %170 = load i32, ptr %22, align 4
  %171 = mul nsw i32 1, %170
  %172 = sext i32 %171 to i64
  %173 = getelementptr inbounds i16, ptr %169, i64 %172
  store ptr %173, ptr %21, align 8
  %174 = load ptr, ptr %21, align 8
  %175 = load i32, ptr %24, align 4
  %176 = sext i32 %175 to i64
  %177 = getelementptr inbounds i8, ptr %174, i64 %176
  store ptr %177, ptr %26, align 8
  %178 = load i32, ptr %16, align 4
  %179 = load i32, ptr %12, align 4
  %180 = add nsw i32 %179, %178
  store i32 %180, ptr %12, align 4
  %181 = load i32, ptr %17, align 4
  %182 = load i32, ptr %13, align 4
  %183 = add nsw i32 %182, %181
  store i32 %183, ptr %13, align 4
  %184 = load ptr, ptr %21, align 8
  %185 = getelementptr inbounds i16, ptr %184, i64 0
  %186 = load i16, ptr %185, align 2
  %187 = sext i16 %186 to i32
  store i32 %187, ptr %29, align 4
  %188 = load ptr, ptr %21, align 8
  %189 = getelementptr inbounds i16, ptr %188, i64 1
  %190 = load i16, ptr %189, align 2
  %191 = sext i16 %190 to i32
  store i32 %191, ptr %30, align 4
  %192 = load ptr, ptr %26, align 8
  %193 = getelementptr inbounds i16, ptr %192, i64 0
  %194 = load i16, ptr %193, align 2
  %195 = sext i16 %194 to i32
  store i32 %195, ptr %31, align 4
  %196 = load ptr, ptr %26, align 8
  %197 = getelementptr inbounds i16, ptr %196, i64 1
  %198 = load i16, ptr %197, align 2
  %199 = sext i16 %198 to i32
  store i32 %199, ptr %32, align 4
  br label %200

200:                                              ; preds = %280, %155
  %201 = load ptr, ptr %20, align 8
  %202 = load ptr, ptr %25, align 8
  %203 = icmp ult ptr %201, %202
  br i1 %203, label %204, label %283

204:                                              ; preds = %200
  %205 = load i32, ptr %29, align 4
  %206 = load i32, ptr %28, align 4
  %207 = load i32, ptr %31, align 4
  %208 = load i32, ptr %29, align 4
  %209 = sub nsw i32 %207, %208
  %210 = mul nsw i32 %206, %209
  %211 = add nsw i32 %210, 16384
  %212 = ashr i32 %211, 15
  %213 = add nsw i32 %205, %212
  store i32 %213, ptr %33, align 4
  %214 = load i32, ptr %30, align 4
  %215 = load i32, ptr %28, align 4
  %216 = load i32, ptr %32, align 4
  %217 = load i32, ptr %30, align 4
  %218 = sub nsw i32 %216, %217
  %219 = mul nsw i32 %215, %218
  %220 = add nsw i32 %219, 16384
  %221 = ashr i32 %220, 15
  %222 = add nsw i32 %214, %221
  store i32 %222, ptr %34, align 4
  %223 = load i32, ptr %33, align 4
  %224 = load i32, ptr %27, align 4
  %225 = load i32, ptr %34, align 4
  %226 = load i32, ptr %33, align 4
  %227 = sub nsw i32 %225, %226
  %228 = mul nsw i32 %224, %227
  %229 = add nsw i32 %228, 16384
  %230 = ashr i32 %229, 15
  %231 = add nsw i32 %223, %230
  store i32 %231, ptr %35, align 4
  %232 = load i32, ptr %12, align 4
  %233 = and i32 %232, 32767
  store i32 %233, ptr %27, align 4
  %234 = load i32, ptr %13, align 4
  %235 = and i32 %234, 32767
  store i32 %235, ptr %28, align 4
  %236 = load i32, ptr %13, align 4
  %237 = ashr i32 %236, 12
  %238 = and i32 %237, -8
  store i32 %238, ptr %23, align 4
  %239 = load i32, ptr %12, align 4
  %240 = ashr i32 %239, 15
  store i32 %240, ptr %22, align 4
  %241 = load ptr, ptr %8, align 8
  %242 = load i32, ptr %23, align 4
  %243 = sext i32 %242 to i64
  %244 = getelementptr inbounds i8, ptr %241, i64 %243
  %245 = load ptr, ptr %244, align 8
  %246 = load i32, ptr %22, align 4
  %247 = mul nsw i32 1, %246
  %248 = sext i32 %247 to i64
  %249 = getelementptr inbounds i16, ptr %245, i64 %248
  store ptr %249, ptr %21, align 8
  %250 = load ptr, ptr %21, align 8
  %251 = load i32, ptr %24, align 4
  %252 = sext i32 %251 to i64
  %253 = getelementptr inbounds i8, ptr %250, i64 %252
  store ptr %253, ptr %26, align 8
  %254 = load i32, ptr %16, align 4
  %255 = load i32, ptr %12, align 4
  %256 = add nsw i32 %255, %254
  store i32 %256, ptr %12, align 4
  %257 = load i32, ptr %17, align 4
  %258 = load i32, ptr %13, align 4
  %259 = add nsw i32 %258, %257
  store i32 %259, ptr %13, align 4
  %260 = load ptr, ptr %21, align 8
  %261 = getelementptr inbounds i16, ptr %260, i64 0
  %262 = load i16, ptr %261, align 2
  %263 = sext i16 %262 to i32
  store i32 %263, ptr %29, align 4
  %264 = load ptr, ptr %21, align 8
  %265 = getelementptr inbounds i16, ptr %264, i64 1
  %266 = load i16, ptr %265, align 2
  %267 = sext i16 %266 to i32
  store i32 %267, ptr %30, align 4
  %268 = load ptr, ptr %26, align 8
  %269 = getelementptr inbounds i16, ptr %268, i64 0
  %270 = load i16, ptr %269, align 2
  %271 = sext i16 %270 to i32
  store i32 %271, ptr %31, align 4
  %272 = load ptr, ptr %26, align 8
  %273 = getelementptr inbounds i16, ptr %272, i64 1
  %274 = load i16, ptr %273, align 2
  %275 = sext i16 %274 to i32
  store i32 %275, ptr %32, align 4
  %276 = load i32, ptr %35, align 4
  %277 = trunc i32 %276 to i16
  %278 = load ptr, ptr %20, align 8
  %279 = getelementptr inbounds i16, ptr %278, i64 0
  store i16 %277, ptr %279, align 2
  br label %280

280:                                              ; preds = %204
  %281 = load ptr, ptr %20, align 8
  %282 = getelementptr inbounds i16, ptr %281, i32 1
  store ptr %282, ptr %20, align 8
  br label %200, !llvm.loop !6

283:                                              ; preds = %200
  %284 = load i32, ptr %29, align 4
  %285 = load i32, ptr %28, align 4
  %286 = load i32, ptr %31, align 4
  %287 = load i32, ptr %29, align 4
  %288 = sub nsw i32 %286, %287
  %289 = mul nsw i32 %285, %288
  %290 = add nsw i32 %289, 16384
  %291 = ashr i32 %290, 15
  %292 = add nsw i32 %284, %291
  store i32 %292, ptr %33, align 4
  %293 = load i32, ptr %30, align 4
  %294 = load i32, ptr %28, align 4
  %295 = load i32, ptr %32, align 4
  %296 = load i32, ptr %30, align 4
  %297 = sub nsw i32 %295, %296
  %298 = mul nsw i32 %294, %297
  %299 = add nsw i32 %298, 16384
  %300 = ashr i32 %299, 15
  %301 = add nsw i32 %293, %300
  store i32 %301, ptr %34, align 4
  %302 = load i32, ptr %33, align 4
  %303 = load i32, ptr %27, align 4
  %304 = load i32, ptr %34, align 4
  %305 = load i32, ptr %33, align 4
  %306 = sub nsw i32 %304, %305
  %307 = mul nsw i32 %303, %306
  %308 = add nsw i32 %307, 16384
  %309 = ashr i32 %308, 15
  %310 = add nsw i32 %302, %309
  store i32 %310, ptr %35, align 4
  %311 = load i32, ptr %35, align 4
  %312 = trunc i32 %311 to i16
  %313 = load ptr, ptr %20, align 8
  %314 = getelementptr inbounds i16, ptr %313, i64 0
  store i16 %312, ptr %314, align 2
  br label %315

315:                                              ; preds = %283, %131
  %316 = load i32, ptr %18, align 4
  %317 = add nsw i32 %316, 1
  store i32 %317, ptr %18, align 4
  br label %82, !llvm.loop !8

318:                                              ; preds = %82
  ret i32 0
}