; Function Attrs: nofree norecurse nosync nounwind memory(readwrite, inaccessiblemem: none) uwtable
define hidden noundef i32 @mlib_ImageAffine_s16_1ch_bl(ptr nocapture noundef readonly %0) local_unnamed_addr #0 {
  %2 = getelementptr inbounds i8, ptr %0, i64 40
  %3 = load ptr, ptr %2, align 8
  %4 = getelementptr inbounds i8, ptr %0, i64 48
  %5 = load ptr, ptr %4, align 8
  %6 = getelementptr inbounds i8, ptr %0, i64 56
  %7 = load ptr, ptr %6, align 8
  %8 = getelementptr inbounds i8, ptr %0, i64 64
  %9 = load ptr, ptr %8, align 8
  %10 = getelementptr inbounds i8, ptr %0, i64 24
  %11 = load ptr, ptr %10, align 8
  %12 = getelementptr inbounds i8, ptr %0, i64 72
  %13 = load i32, ptr %12, align 8
  %14 = getelementptr inbounds i8, ptr %0, i64 76
  %15 = load i32, ptr %14, align 4
  %16 = getelementptr inbounds i8, ptr %0, i64 104
  %17 = load ptr, ptr %16, align 8
  %.not151 = icmp sgt i32 %13, %15
  br i1 %.not151, label %._crit_edge158, label %.lr.ph157

.lr.ph157:                                        ; preds = %1
  %18 = getelementptr inbounds i8, ptr %0, i64 80
  %19 = load <2 x i32>, ptr %18, align 8
  %20 = add nsw <2 x i32> %19, <i32 1, i32 1>
  %21 = ashr <2 x i32> %20, <i32 1, i32 1>
  %22 = getelementptr inbounds i8, ptr %0, i64 92
  %23 = load i32, ptr %22, align 4
  %24 = getelementptr inbounds i8, ptr %0, i64 96
  %25 = load i32, ptr %24, align 8
  %26 = getelementptr inbounds i8, ptr %0, i64 32
  %27 = load ptr, ptr %26, align 8
  %28 = sext i32 %25 to i64
  %.not127 = icmp eq ptr %17, null
  %29 = sext i32 %23 to i64
  %30 = sext i32 %13 to i64
  %31 = add i32 %15, 1
  %32 = insertelement <2 x i1> poison, i1 %.not127, i64 0
  %33 = shufflevector <2 x i1> %32, <2 x i1> poison, <2 x i32> zeroinitializer
  br label %34

34:                                               ; preds = %.lr.ph157, %128
  %indvars.iv = phi i64 [ %30, %.lr.ph157 ], [ %indvars.iv.next, %128 ]
  %.0114155 = phi ptr [ %27, %.lr.ph157 ], [ %36, %128 ]
  %35 = phi <2 x i32> [ %21, %.lr.ph157 ], [ %129, %128 ]
  %36 = getelementptr inbounds i8, ptr %.0114155, i64 %28
  %37 = getelementptr inbounds i32, ptr %3, i64 %indvars.iv
  %38 = load i32, ptr %37, align 4
  %39 = getelementptr inbounds i32, ptr %5, i64 %indvars.iv
  %40 = load i32, ptr %39, align 4
  %41 = getelementptr inbounds i32, ptr %7, i64 %indvars.iv
  %42 = load i32, ptr %41, align 4
  %43 = getelementptr inbounds i32, ptr %9, i64 %indvars.iv
  %44 = load i32, ptr %43, align 4
  br i1 %.not127, label %48, label %45

45:                                               ; preds = %34
  %.idx = shl nsw i64 %indvars.iv, 3
  %46 = getelementptr inbounds i8, ptr %17, i64 %.idx
  %47 = load <2 x i32>, ptr %46, align 4
  br label %48

48:                                               ; preds = %45, %34
  %49 = phi <2 x i32> [ %47, %45 ], [ %35, %34 ]
  %50 = icmp sgt i32 %38, %40
  br i1 %50, label %128, label %51

51:                                               ; preds = %48
  %52 = sext i32 %38 to i64
  %53 = getelementptr inbounds i16, ptr %36, i64 %52
  %54 = sext i32 %40 to i64
  %55 = getelementptr inbounds i16, ptr %36, i64 %54
  %56 = ashr i32 %42, 1
  %57 = ashr i32 %44, 1
  %58 = add nsw <2 x i32> %49, <i32 1, i32 1>
  %59 = ashr <2 x i32> %58, <i32 1, i32 1>
  %60 = select <2 x i1> %33, <2 x i32> %49, <2 x i32> %59
  %61 = ashr i32 %44, 13
  %62 = and i32 %61, -8
  %63 = ashr i32 %42, 16
  %64 = sext i32 %62 to i64
  %65 = getelementptr inbounds i8, ptr %11, i64 %64
  %66 = load ptr, ptr %65, align 8
  %67 = sext i32 %63 to i64
  %68 = getelementptr inbounds i16, ptr %66, i64 %67
  %69 = getelementptr inbounds i8, ptr %68, i64 %29
  %70 = load i16, ptr %68, align 2
  %71 = getelementptr inbounds i8, ptr %68, i64 2
  %72 = load i16, ptr %71, align 2
  %73 = load i16, ptr %69, align 2
  %74 = getelementptr inbounds i8, ptr %69, i64 2
  %75 = load i16, ptr %74, align 2
  %.0130 = sext i16 %75 to i32
  %.0109131 = sext i16 %73 to i32
  %.0110132 = sext i16 %72 to i32
  %.0111133 = sext i16 %70 to i32
  %.0112134 = and i32 %57, 32767
  %.0113135 = and i32 %56, 32767
  %76 = icmp slt i32 %38, %40
  br i1 %76, label %.lr.ph.preheader, label %._crit_edge

.lr.ph.preheader:                                 ; preds = %51
  %77 = extractelement <2 x i32> %60, i64 0
  %78 = extractelement <2 x i32> %60, i64 1
  br label %.lr.ph

.lr.ph:                                           ; preds = %.lr.ph.preheader, %.lr.ph
  %.0113144 = phi i32 [ %.0113, %.lr.ph ], [ %.0113135, %.lr.ph.preheader ]
  %.0112143 = phi i32 [ %.0112, %.lr.ph ], [ %.0112134, %.lr.ph.preheader ]
  %.0111142 = phi i32 [ %.0111, %.lr.ph ], [ %.0111133, %.lr.ph.preheader ]
  %.0110141 = phi i32 [ %.0110, %.lr.ph ], [ %.0110132, %.lr.ph.preheader ]
  %.0109140 = phi i32 [ %.0109, %.lr.ph ], [ %.0109131, %.lr.ph.preheader ]
  %.0139 = phi i32 [ %.0, %.lr.ph ], [ %.0130, %.lr.ph.preheader ]
  %.pn128138 = phi i32 [ %.0115, %.lr.ph ], [ %56, %.lr.ph.preheader ]
  %.0116137 = phi ptr [ %110, %.lr.ph ], [ %53, %.lr.ph.preheader ]
  %.pn136 = phi i32 [ %.0117, %.lr.ph ], [ %57, %.lr.ph.preheader ]
  %.0115 = add nsw i32 %.pn128138, %77
  %.0117 = add nsw i32 %.pn136, %78
  %79 = sub nsw i32 %.0109140, %.0111142
  %80 = mul nsw i32 %79, %.0112143
  %81 = add nsw i32 %80, 16384
  %82 = ashr i32 %81, 15
  %83 = add nsw i32 %82, %.0111142
  %84 = sub nsw i32 %.0139, %.0110141
  %85 = mul nsw i32 %84, %.0112143
  %86 = add nsw i32 %85, 16384
  %87 = ashr i32 %86, 15
  %88 = add nsw i32 %87, %.0110141
  %89 = sub nsw i32 %88, %83
  %90 = mul nsw i32 %89, %.0113144
  %91 = add nsw i32 %90, 16384
  %92 = lshr i32 %91, 15
  %93 = add nsw i32 %92, %83
  %94 = ashr i32 %.0117, 12
  %95 = and i32 %94, -8
  %96 = ashr i32 %.0115, 15
  %97 = sext i32 %95 to i64
  %98 = getelementptr inbounds i8, ptr %11, i64 %97
  %99 = load ptr, ptr %98, align 8
  %100 = sext i32 %96 to i64
  %101 = getelementptr inbounds i16, ptr %99, i64 %100
  %102 = getelementptr inbounds i8, ptr %101, i64 %29
  %103 = load i16, ptr %101, align 2
  %104 = getelementptr inbounds i8, ptr %101, i64 2
  %105 = load i16, ptr %104, align 2
  %106 = load i16, ptr %102, align 2
  %107 = getelementptr inbounds i8, ptr %102, i64 2
  %108 = load i16, ptr %107, align 2
  %109 = trunc i32 %93 to i16
  store i16 %109, ptr %.0116137, align 2
  %110 = getelementptr inbounds i8, ptr %.0116137, i64 2
  %.0 = sext i16 %108 to i32
  %.0109 = sext i16 %106 to i32
  %.0110 = sext i16 %105 to i32
  %.0111 = sext i16 %103 to i32
  %.0112 = and i32 %.0117, 32767
  %.0113 = and i32 %.0115, 32767
  %111 = icmp ult ptr %110, %55
  br i1 %111, label %.lr.ph, label %._crit_edge, !llvm.loop !6

._crit_edge:                                      ; preds = %.lr.ph, %51
  %.0116.lcssa = phi ptr [ %53, %51 ], [ %110, %.lr.ph ]
  %.0.lcssa = phi i32 [ %.0130, %51 ], [ %.0, %.lr.ph ]
  %.0109.lcssa = phi i32 [ %.0109131, %51 ], [ %.0109, %.lr.ph ]
  %.0110.lcssa = phi i32 [ %.0110132, %51 ], [ %.0110, %.lr.ph ]
  %.0111.lcssa = phi i32 [ %.0111133, %51 ], [ %.0111, %.lr.ph ]
  %.0112.lcssa = phi i32 [ %.0112134, %51 ], [ %.0112, %.lr.ph ]
  %.0113.lcssa = phi i32 [ %.0113135, %51 ], [ %.0113, %.lr.ph ]
  %112 = sub nsw i32 %.0109.lcssa, %.0111.lcssa
  %113 = mul nsw i32 %112, %.0112.lcssa
  %114 = add nsw i32 %113, 16384
  %115 = ashr i32 %114, 15
  %116 = add nsw i32 %115, %.0111.lcssa
  %117 = sub nsw i32 %.0.lcssa, %.0110.lcssa
  %118 = mul nsw i32 %117, %.0112.lcssa
  %119 = add nsw i32 %118, 16384
  %120 = ashr i32 %119, 15
  %121 = add nsw i32 %120, %.0110.lcssa
  %122 = sub nsw i32 %121, %116
  %123 = mul nsw i32 %122, %.0113.lcssa
  %124 = add nsw i32 %123, 16384
  %125 = lshr i32 %124, 15
  %126 = add nsw i32 %125, %116
  %127 = trunc i32 %126 to i16
  store i16 %127, ptr %.0116.lcssa, align 2
  br label %128

128:                                              ; preds = %48, %._crit_edge
  %129 = phi <2 x i32> [ %49, %48 ], [ %60, %._crit_edge ]
  %indvars.iv.next = add nsw i64 %indvars.iv, 1
  %lftr.wideiv = trunc i64 %indvars.iv.next to i32
  %exitcond.not = icmp eq i32 %31, %lftr.wideiv
  br i1 %exitcond.not, label %._crit_edge158, label %34, !llvm.loop !8

._crit_edge158:                                   ; preds = %128, %1
  ret i32 0
}